; Function Attrs: mustprogress uwtable
define noundef signext i8 @_ZN6icu_759UVector3214expandCapacityEiR10UErrorCode(ptr nocapture noundef nonnull align 8 dereferenceable(32) %this, i32 noundef %minimumCapacity, ptr nocapture noundef nonnull align 4 dereferenceable(4) %status) local_unnamed_addr #1 align 2 {
entry:
  %0 = load i32, ptr %status, align 4
  %cmp.i = icmp slt i32 %0, 1
  br i1 %cmp.i, label %if.end, label %return

if.end:                                           ; preds = %entry
  %cmp = icmp slt i32 %minimumCapacity, 0
  br i1 %cmp, label %if.then2, label %if.end3

if.then2:                                         ; preds = %if.end
  store i32 1, ptr %status, align 4
  br label %return

if.end3:                                          ; preds = %if.end
  %capacity = getelementptr inbounds i8, ptr %this, i64 12
  %1 = load i32, ptr %capacity, align 4
  %cmp4.not = icmp slt i32 %1, %minimumCapacity
  br i1 %cmp4.not, label %if.end6, label %return

if.end6:                                          ; preds = %if.end3
  %maxCapacity = getelementptr inbounds i8, ptr %this, i64 16
  %2 = load i32, ptr %maxCapacity, align 8
  %cmp7 = icmp sgt i32 %2, 0
  %cmp9 = icmp slt i32 %2, %minimumCapacity
  %or.cond = and i1 %cmp7, %cmp9
  br i1 %or.cond, label %if.then10, label %if.end11

if.then10:                                        ; preds = %if.end6
  store i32 15, ptr %status, align 4
  br label %return

if.end11:                                         ; preds = %if.end6
  %cmp13 = icmp sgt i32 %1, 1073741823
  br i1 %cmp13, label %if.then14, label %if.end15

if.then14:                                        ; preds = %if.end11
  store i32 1, ptr %status, align 4
  br label %return

if.end15:                                         ; preds = %if.end11
  %mul = shl nsw i32 %1, 1
  %spec.select = tail call i32 @llvm.smax.i32(i32 %mul, i32 %minimumCapacity)
  %3 = tail call i32 @llvm.smin.i32(i32 %spec.select, i32 %2)
  %newCap.1 = select i1 %cmp7, i32 %3, i32 %spec.select
  %cmp28 = icmp sgt i32 %newCap.1, 536870911
  br i1 %cmp28, label %if.then29, label %if.end30

if.then29:                                        ; preds = %if.end15
  store i32 1, ptr %status, align 4
  br label %return

if.end30:                                         ; preds = %if.end15
  %elements = getelementptr inbounds i8, ptr %this, i64 24
  %4 = load ptr, ptr %elements, align 8
  %conv = zext nneg i32 %newCap.1 to i64
  %mul31 = shl nuw nsw i64 %conv, 2
  %call32 = tail call ptr @uprv_realloc_75(ptr noundef %4, i64 noundef %mul31) #16
  %cmp33 = icmp eq ptr %call32, null
  br i1 %cmp33, label %if.then34, label %if.end35

if.then34:                                        ; preds = %if.end30
  store i32 7, ptr %status, align 4
  br label %return

if.end35:                                         ; preds = %if.end30
  store ptr %call32, ptr %elements, align 8
  store i32 %newCap.1, ptr %capacity, align 4
  br label %return

return:                                           ; preds = %if.end3, %entry, %if.end35, %if.then34, %if.then29, %if.then14, %if.then10, %if.then2
  %retval.0 = phi i8 [ 0, %if.then2 ], [ 0, %if.then10 ], [ 0, %if.then14 ], [ 0, %if.then29 ], [ 0, %if.then34 ], [ 1, %if.end35 ], [ 0, %entry ], [ 1, %if.end3 ]
  ret i8 %retval.0
}